target datalayout = "e-m:e-p270:32:32-p271:32:32-p272:64:64-i64:64-i128:128-f80:128-n8:16:32:64-S128"
target triple = "x86_64-pc-linux-gnu"

%struct._object = type { %union.anon, ptr }
%union.anon = type { i64 }
%struct.elementtreestate = type { ptr, ptr, ptr, ptr, ptr, ptr, ptr, ptr, ptr, ptr, ptr, ptr, ptr, ptr, ptr, ptr, ptr, ptr, ptr }
%struct.anon = type { i32, i32 }
%struct.ElementObject = type { %struct._object, ptr, ptr, ptr, ptr, ptr }
%struct.TreeBuilderObject = type { %struct._object, ptr, ptr, ptr, ptr, ptr, ptr, i64, ptr, ptr, ptr, ptr, ptr, ptr, ptr, ptr, ptr, ptr, i8, i8, ptr }

@_Py_NoneStruct = external global %struct._object, align 8

; Function Attrs: alwaysinline nounwind uwtable
define internal i32 @_Py_IsImmortal(ptr noundef %0) #4 {
  %2 = alloca ptr, align 8
  store ptr %0, ptr %2, align 8, !tbaa !3
  %3 = load ptr, ptr %2, align 8, !tbaa !3
  %4 = getelementptr inbounds nuw %struct._object, ptr %3, i32 0, i32 0
  %5 = getelementptr inbounds nuw %struct.anon, ptr %4, i32 0, i32 0
  %6 = load i32, ptr %5, align 8, !tbaa !32
  %7 = icmp slt i32 %6, 0
  %8 = zext i1 %7 to i32
  ret i32 %8
}

; Function Attrs: alwaysinline nounwind uwtable
define internal void @Py_INCREF(ptr noundef %0) #4 {
  %2 = alloca ptr, align 8
  %3 = alloca i32, align 4
  %4 = alloca i32, align 4
  store ptr %0, ptr %2, align 8, !tbaa !3
  call void @llvm.lifetime.start.p0(i64 4, ptr %3) #8
  %5 = load ptr, ptr %2, align 8, !tbaa !3
  %6 = getelementptr inbounds nuw %struct._object, ptr %5, i32 0, i32 0
  %7 = getelementptr inbounds nuw %struct.anon, ptr %6, i32 0, i32 0
  %8 = load i32, ptr %7, align 8, !tbaa !32
  store i32 %8, ptr %3, align 4, !tbaa !13
  %9 = load i32, ptr %3, align 4, !tbaa !13
  %10 = icmp slt i32 %9, 0
  br i1 %10, label %11, label %12

11:                                               ; preds = %1
  store i32 1, ptr %4, align 4
  br label %18

12:                                               ; preds = %1
  %13 = load i32, ptr %3, align 4, !tbaa !13
  %14 = add i32 %13, 1
  %15 = load ptr, ptr %2, align 8, !tbaa !3
  %16 = getelementptr inbounds nuw %struct._object, ptr %15, i32 0, i32 0
  %17 = getelementptr inbounds nuw %struct.anon, ptr %16, i32 0, i32 0
  store i32 %14, ptr %17, align 8, !tbaa !32
  store i32 0, ptr %4, align 4
  br label %18

18:                                               ; preds = %12, %11
  call void @llvm.lifetime.end.p0(i64 4, ptr %3) #8
  %19 = load i32, ptr %4, align 4
  switch i32 %19, label %21 [
    i32 0, label %20
    i32 1, label %20
  ]

20:                                               ; preds = %18, %18
  ret void

21:                                               ; preds = %18
  unreachable
}

; Function Attrs: alwaysinline nounwind uwtable
define internal void @Py_DECREF(ptr noundef %0) #4 {
  %2 = alloca ptr, align 8
  store ptr %0, ptr %2, align 8, !tbaa !3
  %3 = load ptr, ptr %2, align 8, !tbaa !3
  %4 = call i32 @_Py_IsImmortal(ptr noundef %3)
  %5 = icmp ne i32 %4, 0
  br i1 %5, label %6, label %7

6:                                                ; preds = %1
  br label %16

7:                                                ; preds = %1
  %8 = load ptr, ptr %2, align 8, !tbaa !3
  %9 = getelementptr inbounds nuw %struct._object, ptr %8, i32 0, i32 0
  %10 = getelementptr inbounds nuw %struct.anon, ptr %9, i32 0, i32 0
  %11 = load i32, ptr %10, align 8, !tbaa !32
  %12 = add i32 %11, -1
  store i32 %12, ptr %10, align 8, !tbaa !32
  %13 = icmp eq i32 %12, 0
  br i1 %13, label %14, label %16

14:                                               ; preds = %7
  %15 = load ptr, ptr %2, align 8, !tbaa !3
  call void @_Py_Dealloc(ptr noundef %15)
  br label %16

16:                                               ; preds = %6, %14, %7
  ret void
}

; Function Attrs: nounwind uwtable
define internal i32 @treebuilder_append_event(ptr noundef %0, ptr noundef %1, ptr noundef %2) #0 {
  %4 = alloca i32, align 4
  %5 = alloca ptr, align 8
  %6 = alloca ptr, align 8
  %7 = alloca ptr, align 8
  %8 = alloca ptr, align 8
  %9 = alloca ptr, align 8
  %10 = alloca i32, align 4
  store ptr %0, ptr %5, align 8, !tbaa !8
  store ptr %1, ptr %6, align 8, !tbaa !3
  store ptr %2, ptr %7, align 8, !tbaa !3
  %11 = load ptr, ptr %6, align 8, !tbaa !3
  %12 = icmp ne ptr %11, null
  br i1 %12, label %13, label %35

13:                                               ; preds = %3
  call void @llvm.lifetime.start.p0(i64 8, ptr %8) #8
  call void @llvm.lifetime.start.p0(i64 8, ptr %9) #8
  %14 = load ptr, ptr %6, align 8, !tbaa !3
  %15 = load ptr, ptr %7, align 8, !tbaa !3
  %16 = call ptr (i64, ...) @PyTuple_Pack(i64 noundef 2, ptr noundef %14, ptr noundef %15)
  store ptr %16, ptr %9, align 8, !tbaa !3
  %17 = load ptr, ptr %9, align 8, !tbaa !3
  %18 = icmp eq ptr %17, null
  br i1 %18, label %19, label %20

19:                                               ; preds = %13
  store i32 -1, ptr %4, align 4
  store i32 1, ptr %10, align 4
  br label %32

20:                                               ; preds = %13
  %21 = load ptr, ptr %5, align 8, !tbaa !8
  %22 = getelementptr inbounds nuw %struct.TreeBuilderObject, ptr %21, i32 0, i32 11
  %23 = load ptr, ptr %22, align 8, !tbaa !97
  %24 = load ptr, ptr %9, align 8, !tbaa !3
  %25 = call ptr @PyObject_CallOneArg(ptr noundef %23, ptr noundef %24)
  store ptr %25, ptr %8, align 8, !tbaa !3
  %26 = load ptr, ptr %9, align 8, !tbaa !3
  call void @Py_DECREF(ptr noundef %26)
  %27 = load ptr, ptr %8, align 8, !tbaa !3
  %28 = icmp eq ptr %27, null
  br i1 %28, label %29, label %30

29:                                               ; preds = %20
  store i32 -1, ptr %4, align 4
  store i32 1, ptr %10, align 4
  br label %32

30:                                               ; preds = %20
  %31 = load ptr, ptr %8, align 8, !tbaa !3
  call void @Py_DECREF(ptr noundef %31)
  store i32 0, ptr %10, align 4
  br label %32

32:                                               ; preds = %30, %29, %19
  call void @llvm.lifetime.end.p0(i64 8, ptr %9) #8
  call void @llvm.lifetime.end.p0(i64 8, ptr %8) #8
  %33 = load i32, ptr %10, align 4
  switch i32 %33, label %38 [
    i32 0, label %34
    i32 1, label %36
  ]

34:                                               ; preds = %32
  br label %35

35:                                               ; preds = %34, %3
  store i32 0, ptr %4, align 4
  br label %36

36:                                               ; preds = %35, %32
  %37 = load i32, ptr %4, align 4
  ret i32 %37

38:                                               ; preds = %32
  unreachable
}

; Function Attrs: inlinehint nounwind uwtable
define internal void @Py_XDECREF(ptr noundef %0) #3 {
  %2 = alloca ptr, align 8
  store ptr %0, ptr %2, align 8, !tbaa !3
  %3 = load ptr, ptr %2, align 8, !tbaa !3
  %4 = icmp ne ptr %3, null
  br i1 %4, label %5, label %7

5:                                                ; preds = %1
  %6 = load ptr, ptr %2, align 8, !tbaa !3
  call void @Py_DECREF(ptr noundef %6)
  br label %7

7:                                                ; preds = %5, %1
  ret void
}

; Function Attrs: inlinehint nounwind uwtable
define internal ptr @_Py_NewRef(ptr noundef %0) #3 {
  %2 = alloca ptr, align 8
  store ptr %0, ptr %2, align 8, !tbaa !3
  %3 = load ptr, ptr %2, align 8, !tbaa !3
  call void @Py_INCREF(ptr noundef %3)
  %4 = load ptr, ptr %2, align 8, !tbaa !3
  ret ptr %4
}

; Function Attrs: nounwind uwtable
define internal i32 @treebuilder_flush_data(ptr noundef %0) #0 {
  %2 = alloca i32, align 4
  %3 = alloca ptr, align 8
  %4 = alloca ptr, align 8
  %5 = alloca ptr, align 8
  %6 = alloca i32, align 4
  %7 = alloca ptr, align 8
  store ptr %0, ptr %3, align 8, !tbaa !8
  %8 = load ptr, ptr %3, align 8, !tbaa !8
  %9 = getelementptr inbounds nuw %struct.TreeBuilderObject, ptr %8, i32 0, i32 5
  %10 = load ptr, ptr %9, align 8, !tbaa !102
  %11 = icmp ne ptr %10, null
  br i1 %11, label %13, label %12

12:                                               ; preds = %1
  store i32 0, ptr %2, align 4
  br label %50

13:                                               ; preds = %1
  call void @llvm.lifetime.start.p0(i64 8, ptr %4) #8
  %14 = load ptr, ptr %3, align 8, !tbaa !8
  %15 = getelementptr inbounds nuw %struct.TreeBuilderObject, ptr %14, i32 0, i32 20
  %16 = load ptr, ptr %15, align 8, !tbaa !111
  store ptr %16, ptr %4, align 8, !tbaa !8
  %17 = load ptr, ptr %3, align 8, !tbaa !8
  %18 = getelementptr inbounds nuw %struct.TreeBuilderObject, ptr %17, i32 0, i32 4
  %19 = load ptr, ptr %18, align 8, !tbaa !101
  %20 = icmp ne ptr %19, null
  br i1 %20, label %35, label %21

21:                                               ; preds = %13
  call void @llvm.lifetime.start.p0(i64 8, ptr %5) #8
  %22 = load ptr, ptr %3, align 8, !tbaa !8
  %23 = getelementptr inbounds nuw %struct.TreeBuilderObject, ptr %22, i32 0, i32 3
  %24 = load ptr, ptr %23, align 8, !tbaa !100
  store ptr %24, ptr %5, align 8, !tbaa !3
  %25 = load ptr, ptr %4, align 8, !tbaa !8
  %26 = load ptr, ptr %5, align 8, !tbaa !3
  %27 = load ptr, ptr %3, align 8, !tbaa !8
  %28 = getelementptr inbounds nuw %struct.TreeBuilderObject, ptr %27, i32 0, i32 5
  %29 = load ptr, ptr %5, align 8, !tbaa !3
  %30 = getelementptr inbounds nuw %struct.ElementObject, ptr %29, i32 0, i32 2
  %31 = load ptr, ptr %4, align 8, !tbaa !8
  %32 = getelementptr inbounds nuw %struct.elementtreestate, ptr %31, i32 0, i32 5
  %33 = load ptr, ptr %32, align 8, !tbaa !71
  %34 = call i32 @treebuilder_extend_element_text_or_tail(ptr noundef %25, ptr noundef %26, ptr noundef %28, ptr noundef %30, ptr noundef %33)
  store i32 %34, ptr %2, align 4
  store i32 1, ptr %6, align 4
  call void @llvm.lifetime.end.p0(i64 8, ptr %5) #8
  br label %49

35:                                               ; preds = %13
  call void @llvm.lifetime.start.p0(i64 8, ptr %7) #8
  %36 = load ptr, ptr %3, align 8, !tbaa !8
  %37 = getelementptr inbounds nuw %struct.TreeBuilderObject, ptr %36, i32 0, i32 4
  %38 = load ptr, ptr %37, align 8, !tbaa !101
  store ptr %38, ptr %7, align 8, !tbaa !3
  %39 = load ptr, ptr %4, align 8, !tbaa !8
  %40 = load ptr, ptr %7, align 8, !tbaa !3
  %41 = load ptr, ptr %3, align 8, !tbaa !8
  %42 = getelementptr inbounds nuw %struct.TreeBuilderObject, ptr %41, i32 0, i32 5
  %43 = load ptr, ptr %7, align 8, !tbaa !3
  %44 = getelementptr inbounds nuw %struct.ElementObject, ptr %43, i32 0, i32 3
  %45 = load ptr, ptr %4, align 8, !tbaa !8
  %46 = getelementptr inbounds nuw %struct.elementtreestate, ptr %45, i32 0, i32 6
  %47 = load ptr, ptr %46, align 8, !tbaa !70
  %48 = call i32 @treebuilder_extend_element_text_or_tail(ptr noundef %39, ptr noundef %40, ptr noundef %42, ptr noundef %44, ptr noundef %47)
  store i32 %48, ptr %2, align 4
  store i32 1, ptr %6, align 4
  call void @llvm.lifetime.end.p0(i64 8, ptr %7) #8
  br label %49

49:                                               ; preds = %35, %21
  call void @llvm.lifetime.end.p0(i64 8, ptr %4) #8
  br label %50

50:                                               ; preds = %49, %12
  %51 = load i32, ptr %2, align 4
  ret i32 %51
}

; Function Attrs: nounwind uwtable
define internal ptr @treebuilder_handle_comment(ptr noundef %0, ptr noundef %1) #0 {
  %3 = alloca ptr, align 8
  %4 = alloca ptr, align 8
  %5 = alloca ptr, align 8
  %6 = alloca ptr, align 8
  %7 = alloca ptr, align 8
  %8 = alloca i32, align 4
  %9 = alloca ptr, align 8
  %10 = alloca ptr, align 8
  store ptr %0, ptr %4, align 8, !tbaa !8
  store ptr %1, ptr %5, align 8, !tbaa !3
  call void @llvm.lifetime.start.p0(i64 8, ptr %6) #8
  call void @llvm.lifetime.start.p0(i64 8, ptr %7) #8
  %11 = load ptr, ptr %4, align 8, !tbaa !8
  %12 = call i32 @treebuilder_flush_data(ptr noundef %11)
  %13 = icmp slt i32 %12, 0
  br i1 %13, label %14, label %15

14:                                               ; preds = %2
  store ptr null, ptr %3, align 8
  store i32 1, ptr %8, align 4
  br label %90

15:                                               ; preds = %2
  %16 = load ptr, ptr %4, align 8, !tbaa !8
  %17 = getelementptr inbounds nuw %struct.TreeBuilderObject, ptr %16, i32 0, i32 9
  %18 = load ptr, ptr %17, align 8, !tbaa !105
  %19 = icmp ne ptr %18, null
  br i1 %19, label %20, label %63

20:                                               ; preds = %15
  %21 = load ptr, ptr %4, align 8, !tbaa !8
  %22 = getelementptr inbounds nuw %struct.TreeBuilderObject, ptr %21, i32 0, i32 9
  %23 = load ptr, ptr %22, align 8, !tbaa !105
  %24 = load ptr, ptr %5, align 8, !tbaa !3
  %25 = call ptr @PyObject_CallOneArg(ptr noundef %23, ptr noundef %24)
  store ptr %25, ptr %6, align 8, !tbaa !3
  %26 = load ptr, ptr %6, align 8, !tbaa !3
  %27 = icmp ne ptr %26, null
  br i1 %27, label %29, label %28

28:                                               ; preds = %20
  store ptr null, ptr %3, align 8
  store i32 1, ptr %8, align 4
  br label %90

29:                                               ; preds = %20
  %30 = load ptr, ptr %4, align 8, !tbaa !8
  %31 = getelementptr inbounds nuw %struct.TreeBuilderObject, ptr %30, i32 0, i32 2
  %32 = load ptr, ptr %31, align 8, !tbaa !99
  store ptr %32, ptr %7, align 8, !tbaa !3
  %33 = load ptr, ptr %4, align 8, !tbaa !8
  %34 = getelementptr inbounds nuw %struct.TreeBuilderObject, ptr %33, i32 0, i32 18
  %35 = load i8, ptr %34, align 8, !tbaa !110
  %36 = sext i8 %35 to i32
  %37 = icmp ne i32 %36, 0
  br i1 %37, label %38, label %62

38:                                               ; preds = %29
  %39 = load ptr, ptr %7, align 8, !tbaa !3
  %40 = icmp ne ptr %39, @_Py_NoneStruct
  br i1 %40, label %41, label %62

41:                                               ; preds = %38
  %42 = load ptr, ptr %4, align 8, !tbaa !8
  %43 = getelementptr inbounds nuw %struct.TreeBuilderObject, ptr %42, i32 0, i32 20
  %44 = load ptr, ptr %43, align 8, !tbaa !111
  %45 = load ptr, ptr %7, align 8, !tbaa !3
  %46 = load ptr, ptr %6, align 8, !tbaa !3
  %47 = call i32 @treebuilder_add_subelement(ptr noundef %44, ptr noundef %45, ptr noundef %46)
  %48 = icmp slt i32 %47, 0
  br i1 %48, label %49, label %50

49:                                               ; preds = %41
  br label %88

50:                                               ; preds = %41
  br label %51

51:                                               ; preds = %50
  call void @llvm.lifetime.start.p0(i64 8, ptr %9) #8
  %52 = load ptr, ptr %4, align 8, !tbaa !8
  %53 = getelementptr inbounds nuw %struct.TreeBuilderObject, ptr %52, i32 0, i32 4
  store ptr %53, ptr %9, align 8, !tbaa !24
  call void @llvm.lifetime.start.p0(i64 8, ptr %10) #8
  %54 = load ptr, ptr %9, align 8, !tbaa !24
  %55 = load ptr, ptr %54, align 8, !tbaa !3
  store ptr %55, ptr %10, align 8, !tbaa !3
  %56 = load ptr, ptr %6, align 8, !tbaa !3
  %57 = call ptr @_Py_NewRef(ptr noundef %56)
  %58 = load ptr, ptr %9, align 8, !tbaa !24
  store ptr %57, ptr %58, align 8, !tbaa !3
  %59 = load ptr, ptr %10, align 8, !tbaa !3
  call void @Py_XDECREF(ptr noundef %59)
  call void @llvm.lifetime.end.p0(i64 8, ptr %10) #8
  call void @llvm.lifetime.end.p0(i64 8, ptr %9) #8
  br label %60

60:                                               ; preds = %51
  br label %61

61:                                               ; preds = %60
  br label %62

62:                                               ; preds = %61, %38, %29
  br label %66

63:                                               ; preds = %15
  %64 = load ptr, ptr %5, align 8, !tbaa !3
  %65 = call ptr @_Py_NewRef(ptr noundef %64)
  store ptr %65, ptr %6, align 8, !tbaa !3
  br label %66

66:                                               ; preds = %63, %62
  %67 = load ptr, ptr %4, align 8, !tbaa !8
  %68 = getelementptr inbounds nuw %struct.TreeBuilderObject, ptr %67, i32 0, i32 11
  %69 = load ptr, ptr %68, align 8, !tbaa !97
  %70 = icmp ne ptr %69, null
  br i1 %70, label %71, label %86

71:                                               ; preds = %66
  %72 = load ptr, ptr %4, align 8, !tbaa !8
  %73 = getelementptr inbounds nuw %struct.TreeBuilderObject, ptr %72, i32 0, i32 16
  %74 = load ptr, ptr %73, align 8, !tbaa !92
  %75 = icmp ne ptr %74, null
  br i1 %75, label %76, label %86

76:                                               ; preds = %71
  %77 = load ptr, ptr %4, align 8, !tbaa !8
  %78 = load ptr, ptr %4, align 8, !tbaa !8
  %79 = getelementptr inbounds nuw %struct.TreeBuilderObject, ptr %78, i32 0, i32 16
  %80 = load ptr, ptr %79, align 8, !tbaa !92
  %81 = load ptr, ptr %6, align 8, !tbaa !3
  %82 = call i32 @treebuilder_append_event(ptr noundef %77, ptr noundef %80, ptr noundef %81)
  %83 = icmp slt i32 %82, 0
  br i1 %83, label %84, label %85

84:                                               ; preds = %76
  br label %88

85:                                               ; preds = %76
  br label %86

86:                                               ; preds = %85, %71, %66
  %87 = load ptr, ptr %6, align 8, !tbaa !3
  store ptr %87, ptr %3, align 8
  store i32 1, ptr %8, align 4
  br label %90

88:                                               ; preds = %84, %49
  %89 = load ptr, ptr %6, align 8, !tbaa !3
  call void @Py_DECREF(ptr noundef %89)
  store ptr null, ptr %3, align 8
  store i32 1, ptr %8, align 4
  br label %90

90:                                               ; preds = %88, %86, %28, %14
  call void @llvm.lifetime.end.p0(i64 8, ptr %7) #8
  call void @llvm.lifetime.end.p0(i64 8, ptr %6) #8
  %91 = load ptr, ptr %3, align 8
  ret ptr %91
}