; Function Attrs: nounwind uwtable
define internal fastcc ptr @treebuilder_handle_comment(ptr noundef captures(none) %0, ptr noundef %1) unnamed_addr #0 {
  %3 = getelementptr inbounds nuw i8, ptr %0, i64 48
  %4 = load ptr, ptr %3, align 8, !tbaa !96
  %.not.i34 = icmp eq ptr %4, null
  br i1 %.not.i34, label %treebuilder_flush_data.exit.thread, label %5

5:                                                ; preds = %2
  %6 = getelementptr inbounds nuw i8, ptr %0, i64 160
  %7 = load ptr, ptr %6, align 8, !tbaa !102
  %8 = getelementptr inbounds nuw i8, ptr %0, i64 40
  %9 = load ptr, ptr %8, align 8, !tbaa !95
  %.not16.i = icmp eq ptr %9, null
  br i1 %.not16.i, label %10, label %18

10:                                               ; preds = %5
  %11 = getelementptr inbounds nuw i8, ptr %0, i64 32
  %12 = load ptr, ptr %11, align 8, !tbaa !94
  %13 = getelementptr inbounds nuw i8, ptr %12, i64 24
  %14 = getelementptr inbounds nuw i8, ptr %7, i64 40
  %15 = load ptr, ptr %14, align 8, !tbaa !66
  %16 = getelementptr i8, ptr %7, i64 104
  %.val.i = load ptr, ptr %16, align 8, !tbaa !15
  %17 = tail call fastcc i32 @treebuilder_extend_element_text_or_tail(ptr %.val.i, ptr noundef %12, ptr noundef nonnull %3, ptr noundef nonnull %13, ptr noundef %15)
  br label %treebuilder_flush_data.exit

18:                                               ; preds = %5
  %19 = getelementptr inbounds nuw i8, ptr %9, i64 32
  %20 = getelementptr inbounds nuw i8, ptr %7, i64 48
  %21 = load ptr, ptr %20, align 8, !tbaa !65
  %22 = getelementptr i8, ptr %7, i64 104
  %.val17.i = load ptr, ptr %22, align 8, !tbaa !15
  %23 = tail call fastcc i32 @treebuilder_extend_element_text_or_tail(ptr %.val17.i, ptr noundef nonnull %9, ptr noundef nonnull %3, ptr noundef nonnull %19, ptr noundef %21)
  br label %treebuilder_flush_data.exit

treebuilder_flush_data.exit:                      ; preds = %10, %18
  %.0.i = phi i32 [ %23, %18 ], [ %17, %10 ]
  %24 = icmp slt i32 %.0.i, 0
  br i1 %24, label %Py_DECREF.exit, label %treebuilder_flush_data.exit.thread

treebuilder_flush_data.exit.thread:               ; preds = %2, %treebuilder_flush_data.exit
  %25 = getelementptr inbounds nuw i8, ptr %0, i64 80
  %26 = load ptr, ptr %25, align 8, !tbaa !99
  %.not = icmp eq ptr %26, null
  br i1 %.not, label %54, label %27

27:                                               ; preds = %treebuilder_flush_data.exit.thread
  %28 = tail call ptr @PyObject_CallOneArg(ptr noundef nonnull %26, ptr noundef %1) #12
  %.not31 = icmp eq ptr %28, null
  br i1 %.not31, label %Py_DECREF.exit, label %29

29:                                               ; preds = %27
  %30 = getelementptr inbounds nuw i8, ptr %0, i64 24
  %31 = load ptr, ptr %30, align 8, !tbaa !93
  %32 = getelementptr inbounds nuw i8, ptr %0, i64 152
  %33 = load i8, ptr %32, align 8, !tbaa !103
  %34 = icmp ne i8 %33, 0
  %35 = icmp ne ptr %31, @_Py_NoneStruct
  %or.cond = select i1 %34, i1 %35, i1 false
  br i1 %or.cond, label %36, label %Py_XDECREF.exit

36:                                               ; preds = %29
  %37 = getelementptr inbounds nuw i8, ptr %0, i64 160
  %38 = load ptr, ptr %37, align 8, !tbaa !102
  %39 = tail call fastcc i32 @treebuilder_add_subelement(ptr noundef %38, ptr noundef %31, ptr noundef %28)
  %40 = icmp slt i32 %39, 0
  br i1 %40, label %treebuilder_append_event.exit, label %41

41:                                               ; preds = %36
  %42 = getelementptr inbounds nuw i8, ptr %0, i64 40
  %43 = load ptr, ptr %42, align 8, !tbaa !20
  %44 = load i32, ptr %28, align 8, !tbaa !21
  %45 = icmp slt i32 %44, 0
  br i1 %45, label %_Py_NewRef.exit, label %46

46:                                               ; preds = %41
  %47 = add nuw i32 %44, 1
  store i32 %47, ptr %28, align 8, !tbaa !21
  br label %_Py_NewRef.exit

_Py_NewRef.exit:                                  ; preds = %41, %46
  store ptr %28, ptr %42, align 8, !tbaa !20
  %.not.i35 = icmp eq ptr %43, null
  br i1 %.not.i35, label %Py_XDECREF.exit, label %48

48:                                               ; preds = %_Py_NewRef.exit
  %49 = load i32, ptr %43, align 8, !tbaa !21
  %.not.i.i = icmp sgt i32 %49, -1
  br i1 %.not.i.i, label %50, label %Py_XDECREF.exit

50:                                               ; preds = %48
  %51 = add nsw i32 %49, -1
  store i32 %51, ptr %43, align 8, !tbaa !21
  %52 = icmp eq i32 %51, 0
  br i1 %52, label %53, label %Py_XDECREF.exit

53:                                               ; preds = %50
  tail call void @_Py_Dealloc(ptr noundef nonnull %43) #12
  br label %Py_XDECREF.exit

54:                                               ; preds = %treebuilder_flush_data.exit.thread
  %55 = load i32, ptr %1, align 8, !tbaa !21
  %56 = icmp slt i32 %55, 0
  br i1 %56, label %Py_XDECREF.exit, label %57

57:                                               ; preds = %54
  %58 = add nuw i32 %55, 1
  store i32 %58, ptr %1, align 8, !tbaa !21
  br label %Py_XDECREF.exit

Py_XDECREF.exit:                                  ; preds = %57, %54, %53, %50, %48, %_Py_NewRef.exit, %29
  %.1 = phi ptr [ %28, %29 ], [ %28, %_Py_NewRef.exit ], [ %28, %48 ], [ %28, %50 ], [ %28, %53 ], [ %1, %54 ], [ %1, %57 ]
  %59 = getelementptr inbounds nuw i8, ptr %0, i64 96
  %60 = load ptr, ptr %59, align 8, !tbaa !91
  %.not32 = icmp eq ptr %60, null
  br i1 %.not32, label %Py_DECREF.exit, label %61

61:                                               ; preds = %Py_XDECREF.exit
  %62 = getelementptr inbounds nuw i8, ptr %0, i64 136
  %63 = load ptr, ptr %62, align 8, !tbaa !86
  %.not33 = icmp eq ptr %63, null
  br i1 %.not33, label %Py_DECREF.exit, label %64

64:                                               ; preds = %61
  %65 = tail call ptr (i64, ...) @PyTuple_Pack(i64 noundef 2, ptr noundef nonnull %63, ptr noundef nonnull %.1) #12
  %66 = icmp eq ptr %65, null
  br i1 %66, label %treebuilder_append_event.exit, label %67

67:                                               ; preds = %64
  %68 = load ptr, ptr %59, align 8, !tbaa !91
  %69 = tail call ptr @PyObject_CallOneArg(ptr noundef %68, ptr noundef nonnull %65) #12
  %70 = load i32, ptr %65, align 8, !tbaa !21
  %.not.i14.i = icmp sgt i32 %70, -1
  br i1 %.not.i14.i, label %71, label %Py_DECREF.exit15.i

71:                                               ; preds = %67
  %72 = add nsw i32 %70, -1
  store i32 %72, ptr %65, align 8, !tbaa !21
  %73 = icmp eq i32 %72, 0
  br i1 %73, label %74, label %Py_DECREF.exit15.i

74:                                               ; preds = %71
  tail call void @_Py_Dealloc(ptr noundef nonnull %65) #12
  br label %Py_DECREF.exit15.i

Py_DECREF.exit15.i:                               ; preds = %74, %71, %67
  %75 = icmp eq ptr %69, null
  br i1 %75, label %treebuilder_append_event.exit, label %76

76:                                               ; preds = %Py_DECREF.exit15.i
  %77 = load i32, ptr %69, align 8, !tbaa !21
  %.not.i.i38 = icmp sgt i32 %77, -1
  br i1 %.not.i.i38, label %78, label %Py_DECREF.exit

78:                                               ; preds = %76
  %79 = add nsw i32 %77, -1
  store i32 %79, ptr %69, align 8, !tbaa !21
  %80 = icmp eq i32 %79, 0
  br i1 %80, label %Py_DECREF.exit.sink.split, label %Py_DECREF.exit

treebuilder_append_event.exit:                    ; preds = %Py_DECREF.exit15.i, %64, %36
  %.026 = phi ptr [ %28, %36 ], [ %.1, %64 ], [ %.1, %Py_DECREF.exit15.i ]
  %81 = load i32, ptr %.026, align 8, !tbaa !21
  %.not.i = icmp sgt i32 %81, -1
  br i1 %.not.i, label %82, label %Py_DECREF.exit

82:                                               ; preds = %treebuilder_append_event.exit
  %83 = add nsw i32 %81, -1
  store i32 %83, ptr %.026, align 8, !tbaa !21
  %84 = icmp eq i32 %83, 0
  br i1 %84, label %Py_DECREF.exit.sink.split, label %Py_DECREF.exit

Py_DECREF.exit.sink.split:                        ; preds = %82, %78
  %.sink = phi ptr [ %69, %78 ], [ %.026, %82 ]
  %.0.ph = phi ptr [ %.1, %78 ], [ null, %82 ]
  tail call void @_Py_Dealloc(ptr noundef nonnull %.sink) #12
  br label %Py_DECREF.exit

Py_DECREF.exit:                                   ; preds = %Py_DECREF.exit.sink.split, %78, %76, %82, %treebuilder_append_event.exit, %Py_XDECREF.exit, %61, %27, %treebuilder_flush_data.exit
  %.0 = phi ptr [ null, %treebuilder_flush_data.exit ], [ null, %27 ], [ %.1, %61 ], [ %.1, %Py_XDECREF.exit ], [ null, %treebuilder_append_event.exit ], [ null, %82 ], [ %.1, %76 ], [ %.1, %78 ], [ %.0.ph, %Py_DECREF.exit.sink.split ]
  ret ptr %.0
}